; Function Attrs: mustprogress nounwind uwtable
define dso_local { ptr, i64 } @_ZN4llvm4yaml12ScalarTraitsIbvE5inputENS_9StringRefEPvRb(ptr %0, i64 %1, ptr noundef readnone captures(none) %2, ptr noundef nonnull writeonly align 1 captures(none) dereferenceable(1) %3) local_unnamed_addr #6 align 2 {
  %5 = tail call i16 @_ZN4llvm4yaml9parseBoolENS_9StringRefE(ptr %0, i64 %1) #32
  %6 = and i16 %5, 256
  %.not = icmp eq i16 %6, 0
  br i1 %.not, label %9, label %7

7:                                                ; preds = %4
  %.sroa.0.0.extract.trunc = trunc i16 %5 to i8
  %8 = and i8 %.sroa.0.0.extract.trunc, 1
  store i8 %8, ptr %3, align 1
  br label %9

9:                                                ; preds = %4, %7
  %.sroa.4.0 = phi i64 [ 0, %7 ], [ 15, %4 ]
  %.sroa.03.0 = phi ptr [ null, %7 ], [ @.str.38, %4 ]
  %.fca.0.insert = insertvalue { ptr, i64 } poison, ptr %.sroa.03.0, 0
  %.fca.1.insert = insertvalue { ptr, i64 } %.fca.0.insert, i64 %.sroa.4.0, 1
  ret { ptr, i64 } %.fca.1.insert
}